target datalayout = "e-m:e-p270:32:32-p271:32:32-p272:64:64-i64:64-i128:128-f80:128-n8:16:32:64-S128"
target triple = "x86_64-pc-linux-gnu"

%struct.Ppoly_t = type { ptr, i64 }
%struct.Pxy_t = type { double, double }

@opl = internal global i64 0, align 8
@ops = internal global ptr null, align 8
@opn = internal global i64 0, align 8

; Function Attrs: nounwind uwtable
define internal i32 @growops(i64 noundef %0) #0 {
  %2 = alloca i32, align 4
  %3 = alloca i64, align 8
  store i64 %0, ptr %3, align 8, !tbaa !8
  %4 = load i64, ptr %3, align 8, !tbaa !8
  %5 = load i64, ptr @opn, align 8, !tbaa !8
  %6 = icmp ule i64 %4, %5
  br i1 %6, label %7, label %8

7:                                                ; preds = %1
  store i32 0, ptr %2, align 4
  br label %17

8:                                                ; preds = %1
  %9 = load ptr, ptr @ops, align 8, !tbaa !10
  %10 = load i64, ptr %3, align 8, !tbaa !8
  %11 = mul i64 16, %10
  %12 = call ptr @realloc(ptr noundef %9, i64 noundef %11) #8
  store ptr %12, ptr @ops, align 8, !tbaa !10
  %13 = icmp ne ptr %12, null
  br i1 %13, label %15, label %14

14:                                               ; preds = %8
  store i32 -1, ptr %2, align 4
  br label %17

15:                                               ; preds = %8
  %16 = load i64, ptr %3, align 8, !tbaa !8
  store i64 %16, ptr @opn, align 8, !tbaa !8
  store i32 0, ptr %2, align 4
  br label %17

17:                                               ; preds = %15, %14, %7
  %18 = load i32, ptr %2, align 4
  ret i32 %18
}

; Function Attrs: nounwind uwtable
define internal { double, double } @normv(double %0, double %1) #0 {
  %3 = alloca %struct.Pxy_t, align 8
  %4 = alloca %struct.Pxy_t, align 8
  %5 = alloca double, align 8
  %6 = getelementptr inbounds nuw { double, double }, ptr %4, i32 0, i32 0
  store double %0, ptr %6, align 8
  %7 = getelementptr inbounds nuw { double, double }, ptr %4, i32 0, i32 1
  store double %1, ptr %7, align 8
  call void @llvm.lifetime.start.p0(i64 8, ptr %5) #7
  %8 = getelementptr inbounds nuw %struct.Pxy_t, ptr %4, i32 0, i32 0
  %9 = load double, ptr %8, align 8, !tbaa !22
  %10 = getelementptr inbounds nuw %struct.Pxy_t, ptr %4, i32 0, i32 0
  %11 = load double, ptr %10, align 8, !tbaa !22
  %12 = getelementptr inbounds nuw %struct.Pxy_t, ptr %4, i32 0, i32 1
  %13 = load double, ptr %12, align 8, !tbaa !24
  %14 = getelementptr inbounds nuw %struct.Pxy_t, ptr %4, i32 0, i32 1
  %15 = load double, ptr %14, align 8, !tbaa !24
  %16 = fmul double %13, %15
  %17 = call double @llvm.fmuladd.f64(double %9, double %11, double %16)
  store double %17, ptr %5, align 8, !tbaa !20
  %18 = load double, ptr %5, align 8, !tbaa !20
  %19 = fcmp ogt double %18, 0x3EB0C6F7A0B5ED8D
  br i1 %19, label %20, label %31

20:                                               ; preds = %2
  %21 = load double, ptr %5, align 8, !tbaa !20
  %22 = call double @sqrt(double noundef %21) #7, !tbaa !17
  store double %22, ptr %5, align 8, !tbaa !20
  %23 = load double, ptr %5, align 8, !tbaa !20
  %24 = getelementptr inbounds nuw %struct.Pxy_t, ptr %4, i32 0, i32 0
  %25 = load double, ptr %24, align 8, !tbaa !22
  %26 = fdiv double %25, %23
  store double %26, ptr %24, align 8, !tbaa !22
  %27 = load double, ptr %5, align 8, !tbaa !20
  %28 = getelementptr inbounds nuw %struct.Pxy_t, ptr %4, i32 0, i32 1
  %29 = load double, ptr %28, align 8, !tbaa !24
  %30 = fdiv double %29, %27
  store double %30, ptr %28, align 8, !tbaa !24
  br label %31

31:                                               ; preds = %20, %2
  call void @llvm.memcpy.p0.p0.i64(ptr align 8 %3, ptr align 8 %4, i64 16, i1 false), !tbaa.struct !19
  call void @llvm.lifetime.end.p0(i64 8, ptr %5) #7
  %32 = load { double, double }, ptr %3, align 8
  ret { double, double } %32
}

; Function Attrs: nounwind uwtable
define i32 @Proutespline(ptr noundef %0, i64 noundef %1, ptr %2, i64 %3, ptr noundef %4, ptr noundef %5) #0 {
  %7 = alloca i32, align 4
  %8 = alloca %struct.Ppoly_t, align 8
  %9 = alloca ptr, align 8
  %10 = alloca i64, align 8
  %11 = alloca ptr, align 8
  %12 = alloca ptr, align 8
  %13 = alloca ptr, align 8
  %14 = alloca i32, align 4
  %15 = alloca %struct.Pxy_t, align 8
  %16 = alloca %struct.Pxy_t, align 8
  %17 = alloca i32, align 4
  %18 = getelementptr inbounds nuw { ptr, i64 }, ptr %8, i32 0, i32 0
  store ptr %2, ptr %18, align 8
  %19 = getelementptr inbounds nuw { ptr, i64 }, ptr %8, i32 0, i32 1
  store i64 %3, ptr %19, align 8
  store ptr %0, ptr %9, align 8, !tbaa !3
  store i64 %1, ptr %10, align 8, !tbaa !8
  store ptr %4, ptr %11, align 8, !tbaa !10
  store ptr %5, ptr %12, align 8, !tbaa !12
  call void @llvm.lifetime.start.p0(i64 8, ptr %13) #7
  call void @llvm.lifetime.start.p0(i64 4, ptr %14) #7
  %20 = getelementptr inbounds nuw %struct.Ppoly_t, ptr %8, i32 0, i32 0
  %21 = load ptr, ptr %20, align 8, !tbaa !14
  store ptr %21, ptr %13, align 8, !tbaa !10
  %22 = getelementptr inbounds nuw %struct.Ppoly_t, ptr %8, i32 0, i32 1
  %23 = load i64, ptr %22, align 8, !tbaa !16
  %24 = trunc i64 %23 to i32
  store i32 %24, ptr %14, align 4, !tbaa !17
  %25 = load ptr, ptr %11, align 8, !tbaa !10
  %26 = getelementptr inbounds %struct.Pxy_t, ptr %25, i64 0
  call void @llvm.lifetime.start.p0(i64 16, ptr %15) #7
  %27 = load ptr, ptr %11, align 8, !tbaa !10
  %28 = getelementptr inbounds %struct.Pxy_t, ptr %27, i64 0
  %29 = getelementptr inbounds nuw { double, double }, ptr %28, i32 0, i32 0
  %30 = load double, ptr %29, align 8
  %31 = getelementptr inbounds nuw { double, double }, ptr %28, i32 0, i32 1
  %32 = load double, ptr %31, align 8
  %33 = call { double, double } @normv(double %30, double %32)
  %34 = getelementptr inbounds nuw { double, double }, ptr %15, i32 0, i32 0
  %35 = extractvalue { double, double } %33, 0
  store double %35, ptr %34, align 8
  %36 = getelementptr inbounds nuw { double, double }, ptr %15, i32 0, i32 1
  %37 = extractvalue { double, double } %33, 1
  store double %37, ptr %36, align 8
  call void @llvm.memcpy.p0.p0.i64(ptr align 8 %26, ptr align 8 %15, i64 16, i1 false), !tbaa.struct !19
  call void @llvm.lifetime.end.p0(i64 16, ptr %15) #7
  %38 = load ptr, ptr %11, align 8, !tbaa !10
  %39 = getelementptr inbounds %struct.Pxy_t, ptr %38, i64 1
  call void @llvm.lifetime.start.p0(i64 16, ptr %16) #7
  %40 = load ptr, ptr %11, align 8, !tbaa !10
  %41 = getelementptr inbounds %struct.Pxy_t, ptr %40, i64 1
  %42 = getelementptr inbounds nuw { double, double }, ptr %41, i32 0, i32 0
  %43 = load double, ptr %42, align 8
  %44 = getelementptr inbounds nuw { double, double }, ptr %41, i32 0, i32 1
  %45 = load double, ptr %44, align 8
  %46 = call { double, double } @normv(double %43, double %45)
  %47 = getelementptr inbounds nuw { double, double }, ptr %16, i32 0, i32 0
  %48 = extractvalue { double, double } %46, 0
  store double %48, ptr %47, align 8
  %49 = getelementptr inbounds nuw { double, double }, ptr %16, i32 0, i32 1
  %50 = extractvalue { double, double } %46, 1
  store double %50, ptr %49, align 8
  call void @llvm.memcpy.p0.p0.i64(ptr align 8 %39, ptr align 8 %16, i64 16, i1 false), !tbaa.struct !19
  call void @llvm.lifetime.end.p0(i64 16, ptr %16) #7
  store i64 0, ptr @opl, align 8, !tbaa !8
  %51 = call i32 @growops(i64 noundef 4)
  %52 = icmp slt i32 %51, 0
  br i1 %52, label %53, label %54

53:                                               ; preds = %6
  store i32 -1, ptr %7, align 4
  store i32 1, ptr %17, align 4
  br label %87

54:                                               ; preds = %6
  %55 = load ptr, ptr @ops, align 8, !tbaa !10
  %56 = load i64, ptr @opl, align 8, !tbaa !8
  %57 = add i64 %56, 1
  store i64 %57, ptr @opl, align 8, !tbaa !8
  %58 = getelementptr inbounds nuw %struct.Pxy_t, ptr %55, i64 %56
  %59 = load ptr, ptr %13, align 8, !tbaa !10
  %60 = getelementptr inbounds %struct.Pxy_t, ptr %59, i64 0
  call void @llvm.memcpy.p0.p0.i64(ptr align 8 %58, ptr align 8 %60, i64 16, i1 false), !tbaa.struct !19
  %61 = load ptr, ptr %9, align 8, !tbaa !3
  %62 = load i64, ptr %10, align 8, !tbaa !8
  %63 = load ptr, ptr %13, align 8, !tbaa !10
  %64 = load i32, ptr %14, align 4, !tbaa !17
  %65 = load ptr, ptr %11, align 8, !tbaa !10
  %66 = getelementptr inbounds %struct.Pxy_t, ptr %65, i64 0
  %67 = load ptr, ptr %11, align 8, !tbaa !10
  %68 = getelementptr inbounds %struct.Pxy_t, ptr %67, i64 1
  %69 = getelementptr inbounds nuw { double, double }, ptr %66, i32 0, i32 0
  %70 = load double, ptr %69, align 8
  %71 = getelementptr inbounds nuw { double, double }, ptr %66, i32 0, i32 1
  %72 = load double, ptr %71, align 8
  %73 = getelementptr inbounds nuw { double, double }, ptr %68, i32 0, i32 0
  %74 = load double, ptr %73, align 8
  %75 = getelementptr inbounds nuw { double, double }, ptr %68, i32 0, i32 1
  %76 = load double, ptr %75, align 8
  %77 = call i32 @reallyroutespline(ptr noundef %61, i64 noundef %62, ptr noundef %63, i32 noundef %64, double %70, double %72, double %74, double %76)
  %78 = icmp eq i32 %77, -1
  br i1 %78, label %79, label %80

79:                                               ; preds = %54
  store i32 -1, ptr %7, align 4
  store i32 1, ptr %17, align 4
  br label %87

80:                                               ; preds = %54
  %81 = load i64, ptr @opl, align 8, !tbaa !8
  %82 = load ptr, ptr %12, align 8, !tbaa !12
  %83 = getelementptr inbounds nuw %struct.Ppoly_t, ptr %82, i32 0, i32 1
  store i64 %81, ptr %83, align 8, !tbaa !16
  %84 = load ptr, ptr @ops, align 8, !tbaa !10
  %85 = load ptr, ptr %12, align 8, !tbaa !12
  %86 = getelementptr inbounds nuw %struct.Ppoly_t, ptr %85, i32 0, i32 0
  store ptr %84, ptr %86, align 8, !tbaa !14
  store i32 0, ptr %7, align 4
  store i32 1, ptr %17, align 4
  br label %87

87:                                               ; preds = %80, %79, %53
  call void @llvm.lifetime.end.p0(i64 4, ptr %14) #7
  call void @llvm.lifetime.end.p0(i64 8, ptr %13) #7
  %88 = load i32, ptr %7, align 4
  ret i32 %88
}