; Function Attrs: nounwind uwtable
define range(i32 -1, 1) i32 @Proutespline(ptr noundef %0, i64 noundef %1, ptr %2, i64 %3, ptr noundef captures(none) %4, ptr noundef writeonly captures(none) %5) local_unnamed_addr #0 {
  %7 = load double, ptr %4, align 8
  %8 = getelementptr inbounds nuw i8, ptr %4, i64 8
  %9 = load double, ptr %8, align 8
  %10 = fmul double %9, %9
  %11 = tail call double @llvm.fmuladd.f64(double %7, double %7, double %10)
  %12 = fcmp ogt double %11, 0x3EB0C6F7A0B5ED8D
  %sqrt.i = tail call double @llvm.sqrt.f64(double %11)
  %13 = fdiv double %7, %sqrt.i
  %14 = fdiv double %9, %sqrt.i
  %.sroa.6.0.i = select i1 %12, double %14, double %9
  %.sroa.0.0.i = select i1 %12, double %13, double %7
  store double %.sroa.0.0.i, ptr %4, align 8, !tbaa !3
  store double %.sroa.6.0.i, ptr %8, align 8, !tbaa !3
  %15 = getelementptr inbounds nuw i8, ptr %4, i64 16
  %16 = load double, ptr %15, align 8
  %17 = getelementptr inbounds nuw i8, ptr %4, i64 24
  %18 = load double, ptr %17, align 8
  %19 = fmul double %18, %18
  %20 = tail call double @llvm.fmuladd.f64(double %16, double %16, double %19)
  %21 = fcmp ogt double %20, 0x3EB0C6F7A0B5ED8D
  %sqrt.i16 = tail call double @llvm.sqrt.f64(double %20)
  %22 = fdiv double %16, %sqrt.i16
  %23 = fdiv double %18, %sqrt.i16
  %.sroa.6.0.i17 = select i1 %21, double %23, double %18
  %.sroa.0.0.i18 = select i1 %21, double %22, double %16
  store double %.sroa.0.0.i18, ptr %15, align 8, !tbaa !3
  store double %.sroa.6.0.i17, ptr %17, align 8, !tbaa !3
  store i64 0, ptr @opl, align 8, !tbaa !7
  %24 = load i64, ptr @opn, align 8, !tbaa !7
  %.not.i = icmp ult i64 %24, 4
  %.pre = load ptr, ptr @ops, align 8, !tbaa !9
  br i1 %.not.i, label %25, label %28

25:                                               ; preds = %6
  %26 = tail call dereferenceable_or_null(64) ptr @realloc(ptr noundef %.pre, i64 noundef 64) #8
  store ptr %26, ptr @ops, align 8, !tbaa !9
  %.not5.i = icmp eq ptr %26, null
  br i1 %.not5.i, label %growops.exit, label %27

27:                                               ; preds = %25
  store i64 4, ptr @opn, align 8, !tbaa !7
  br label %28

28:                                               ; preds = %27, %6
  %29 = phi ptr [ %26, %27 ], [ %.pre, %6 ]
  %30 = trunc i64 %3 to i32
  store i64 1, ptr @opl, align 8, !tbaa !7
  tail call void @llvm.memcpy.p0.p0.i64(ptr noundef nonnull align 8 dereferenceable(16) %29, ptr noundef nonnull align 8 dereferenceable(16) %2, i64 16, i1 false), !tbaa.struct !12
  %31 = load double, ptr %4, align 8
  %32 = load double, ptr %8, align 8
  %33 = load double, ptr %15, align 8
  %34 = load double, ptr %17, align 8
  %35 = tail call fastcc i32 @reallyroutespline(ptr noundef %0, i64 noundef %1, ptr noundef nonnull %2, i32 noundef %30, double %31, double %32, double %33, double %34)
  %36 = icmp eq i32 %35, -1
  br i1 %36, label %growops.exit, label %37

37:                                               ; preds = %28
  %38 = load i64, ptr @opl, align 8, !tbaa !7
  %39 = getelementptr inbounds nuw i8, ptr %5, i64 8
  store i64 %38, ptr %39, align 8, !tbaa !13
  %40 = load ptr, ptr @ops, align 8, !tbaa !9
  store ptr %40, ptr %5, align 8, !tbaa !15
  br label %growops.exit

growops.exit:                                     ; preds = %25, %28, %37
  %.0 = phi i32 [ 0, %37 ], [ -1, %28 ], [ -1, %25 ]
  ret i32 %.0
}